target datalayout = "e-m:e-p270:32:32-p271:32:32-p272:64:64-i64:64-i128:128-f80:128-n8:16:32:64-S128"
target triple = "x86_64-pc-linux-gnu"

@.str.12 = private unnamed_addr constant [19 x i8] c"%s[%2d] (%e - %e)\0A\00", align 1
@.str.13 = private unnamed_addr constant [14 x i8] c"%s (%e - %e)\0A\00", align 1

; Function Attrs: inlinehint mustprogress nounwind uwtable
define linkonce_odr noundef float @_ZSt4fabsf(float noundef %0) #3 comdat {
  %2 = alloca float, align 4
  store float %0, ptr %2, align 4, !tbaa !22
  %3 = load float, ptr %2, align 4, !tbaa !22
  %4 = call float @llvm.fabs.f32(float %3)
  ret float %4
}

; Function Attrs: mustprogress uwtable
define noundef zeroext i1 @_Z10equal_realffff(float noundef %0, float noundef %1, float noundef %2, float noundef %3) #2 {
  %5 = alloca float, align 4
  %6 = alloca float, align 4
  %7 = alloca float, align 4
  %8 = alloca float, align 4
  store float %0, ptr %5, align 4, !tbaa !22
  store float %1, ptr %6, align 4, !tbaa !22
  store float %2, ptr %7, align 4, !tbaa !22
  store float %3, ptr %8, align 4, !tbaa !22
  %9 = load float, ptr %5, align 4, !tbaa !22
  %10 = load float, ptr %6, align 4, !tbaa !22
  %11 = fsub float %9, %10
  %12 = call noundef float @_ZSt4fabsf(float noundef %11)
  %13 = fmul float 2.000000e+00, %12
  %14 = load float, ptr %5, align 4, !tbaa !22
  %15 = call noundef float @_ZSt4fabsf(float noundef %14)
  %16 = load float, ptr %6, align 4, !tbaa !22
  %17 = call noundef float @_ZSt4fabsf(float noundef %16)
  %18 = fadd float %15, %17
  %19 = load float, ptr %7, align 4, !tbaa !22
  %20 = fmul float %18, %19
  %21 = fcmp ole float %13, %20
  br i1 %21, label %29, label %22

22:                                               ; preds = %4
  %23 = load float, ptr %5, align 4, !tbaa !22
  %24 = load float, ptr %6, align 4, !tbaa !22
  %25 = fsub float %23, %24
  %26 = call noundef float @_ZSt4fabsf(float noundef %25)
  %27 = load float, ptr %8, align 4, !tbaa !22
  %28 = fcmp ole float %26, %27
  br label %29

29:                                               ; preds = %22, %4
  %30 = phi i1 [ true, %4 ], [ %28, %22 ]
  ret i1 %30
}

; Function Attrs: mustprogress uwtable
define void @_Z8cmp_realP8_IO_FILEPKciffff(ptr noundef %0, ptr noundef %1, i32 noundef %2, float noundef %3, float noundef %4, float noundef %5, float noundef %6) #2 {
  %8 = alloca ptr, align 8
  %9 = alloca ptr, align 8
  %10 = alloca i32, align 4
  %11 = alloca float, align 4
  %12 = alloca float, align 4
  %13 = alloca float, align 4
  %14 = alloca float, align 4
  store ptr %0, ptr %8, align 8, !tbaa !4
  store ptr %1, ptr %9, align 8, !tbaa !9
  store i32 %2, ptr %10, align 4, !tbaa !11
  store float %3, ptr %11, align 4, !tbaa !22
  store float %4, ptr %12, align 4, !tbaa !22
  store float %5, ptr %13, align 4, !tbaa !22
  store float %6, ptr %14, align 4, !tbaa !22
  %15 = load float, ptr %11, align 4, !tbaa !22
  %16 = load float, ptr %12, align 4, !tbaa !22
  %17 = load float, ptr %13, align 4, !tbaa !22
  %18 = load float, ptr %14, align 4, !tbaa !22
  %19 = call noundef zeroext i1 @_Z10equal_realffff(float noundef %15, float noundef %16, float noundef %17, float noundef %18)
  br i1 %19, label %41, label %20

20:                                               ; preds = %7
  %21 = load i32, ptr %10, align 4, !tbaa !11
  %22 = icmp ne i32 %21, -1
  br i1 %22, label %23, label %32

23:                                               ; preds = %20
  %24 = load ptr, ptr %8, align 8, !tbaa !4
  %25 = load ptr, ptr %9, align 8, !tbaa !9
  %26 = load i32, ptr %10, align 4, !tbaa !11
  %27 = load float, ptr %11, align 4, !tbaa !22
  %28 = fpext float %27 to double
  %29 = load float, ptr %12, align 4, !tbaa !22
  %30 = fpext float %29 to double
  %31 = call i32 (ptr, ptr, ...) @fprintf(ptr noundef %24, ptr noundef @.str.12, ptr noundef %25, i32 noundef %26, double noundef %28, double noundef %30) #6
  br label %40

32:                                               ; preds = %20
  %33 = load ptr, ptr %8, align 8, !tbaa !4
  %34 = load ptr, ptr %9, align 8, !tbaa !9
  %35 = load float, ptr %11, align 4, !tbaa !22
  %36 = fpext float %35 to double
  %37 = load float, ptr %12, align 4, !tbaa !22
  %38 = fpext float %37 to double
  %39 = call i32 (ptr, ptr, ...) @fprintf(ptr noundef %33, ptr noundef @.str.13, ptr noundef %34, double noundef %36, double noundef %38) #6
  br label %40

40:                                               ; preds = %32, %23
  br label %41

41:                                               ; preds = %40, %7
  ret void
}