; Function Attrs: mustprogress nofree nounwind uwtable
define void @_Z8cmp_realP8_IO_FILEPKciffff(ptr noundef captures(none) %0, ptr noundef %1, i32 noundef %2, float noundef %3, float noundef %4, float noundef %5, float noundef %6) local_unnamed_addr #0 {
  %8 = fsub float %3, %4
  %9 = tail call noundef float @llvm.fabs.f32(float %8)
  %10 = fmul float %9, 2.000000e+00
  %11 = tail call noundef float @llvm.fabs.f32(float %3)
  %12 = tail call noundef float @llvm.fabs.f32(float %4)
  %13 = fadd float %11, %12
  %14 = fmul float %5, %13
  %15 = fcmp ole float %10, %14
  %16 = fcmp ole float %9, %6
  %17 = or i1 %16, %15
  br i1 %17, label %25, label %18

18:                                               ; preds = %7
  %.not = icmp eq i32 %2, -1
  %19 = fpext float %3 to double
  %20 = fpext float %4 to double
  br i1 %.not, label %23, label %21

21:                                               ; preds = %18
  %22 = tail call i32 (ptr, ptr, ...) @fprintf(ptr noundef %0, ptr noundef nonnull @.str.12, ptr noundef %1, i32 noundef %2, double noundef %19, double noundef %20) #6
  br label %25

23:                                               ; preds = %18
  %24 = tail call i32 (ptr, ptr, ...) @fprintf(ptr noundef %0, ptr noundef nonnull @.str.13, ptr noundef %1, double noundef %19, double noundef %20) #6
  br label %25

25:                                               ; preds = %21, %23, %7
  ret void
}